target datalayout = "e-m:e-p270:32:32-p271:32:32-p272:64:64-i64:64-i128:128-f80:128-n8:16:32:64-S128"
target triple = "x86_64-pc-linux-gnu"

%struct.jzfile = type { ptr, i32, i64, ptr, i64, i64, i8, i8, %struct.cencache, i32, ptr, ptr, i32, ptr, ptr, i32, ptr, i32, ptr, ptr, ptr, i32, i32, i64, i64 }
%struct.cencache = type { ptr, i64 }

; Function Attrs: nounwind uwtable
define internal i32 @ZFILE_read(i32 noundef %0, ptr noundef %1, i32 noundef %2) #0 {
  %4 = alloca i32, align 4
  %5 = alloca ptr, align 8
  %6 = alloca i32, align 4
  store i32 %0, ptr %4, align 4
  store ptr %1, ptr %5, align 8
  store i32 %2, ptr %6, align 4
  %7 = load i32, ptr %4, align 4
  %8 = load ptr, ptr %5, align 8
  %9 = load i32, ptr %6, align 4
  %10 = sext i32 %9 to i64
  %11 = call i64 @read(i32 noundef %7, ptr noundef %8, i64 noundef %10)
  %12 = trunc i64 %11 to i32
  ret i32 %12
}

; Function Attrs: nounwind uwtable
define internal i32 @readFully(i32 noundef %0, ptr noundef %1, i64 noundef %2) #0 {
  %4 = alloca i32, align 4
  %5 = alloca i32, align 4
  %6 = alloca ptr, align 8
  %7 = alloca i64, align 8
  %8 = alloca ptr, align 8
  %9 = alloca i64, align 8
  %10 = alloca i32, align 4
  %11 = alloca i32, align 4
  store i32 %0, ptr %5, align 4
  store ptr %1, ptr %6, align 8
  store i64 %2, ptr %7, align 8
  %12 = load ptr, ptr %6, align 8
  store ptr %12, ptr %8, align 8
  br label %13

13:                                               ; preds = %52, %50, %3
  %14 = load i64, ptr %7, align 8
  %15 = icmp sgt i64 %14, 0
  br i1 %15, label %16, label %53

16:                                               ; preds = %13
  store i64 2147483647, ptr %9, align 8
  %17 = load i64, ptr %7, align 8
  %18 = load i64, ptr %9, align 8
  %19 = icmp slt i64 %17, %18
  br i1 %19, label %20, label %23

20:                                               ; preds = %16
  %21 = load i64, ptr %7, align 8
  %22 = trunc i64 %21 to i32
  br label %26

23:                                               ; preds = %16
  %24 = load i64, ptr %9, align 8
  %25 = trunc i64 %24 to i32
  br label %26

26:                                               ; preds = %23, %20
  %27 = phi i32 [ %22, %20 ], [ %25, %23 ]
  store i32 %27, ptr %10, align 4
  %28 = load i32, ptr %5, align 4
  %29 = load ptr, ptr %8, align 8
  %30 = load i32, ptr %10, align 4
  %31 = call i32 @ZFILE_read(i32 noundef %28, ptr noundef %29, i32 noundef %30)
  store i32 %31, ptr %11, align 4
  %32 = load i32, ptr %11, align 4
  %33 = icmp sgt i32 %32, 0
  br i1 %33, label %34, label %43

34:                                               ; preds = %26
  %35 = load i32, ptr %11, align 4
  %36 = load ptr, ptr %8, align 8
  %37 = sext i32 %35 to i64
  %38 = getelementptr inbounds i8, ptr %36, i64 %37
  store ptr %38, ptr %8, align 8
  %39 = load i32, ptr %11, align 4
  %40 = sext i32 %39 to i64
  %41 = load i64, ptr %7, align 8
  %42 = sub nsw i64 %41, %40
  store i64 %42, ptr %7, align 8
  br label %52

43:                                               ; preds = %26
  %44 = load i32, ptr %11, align 4
  %45 = icmp eq i32 %44, -1
  br i1 %45, label %46, label %51

46:                                               ; preds = %43
  %47 = call ptr @__errno_location() #13
  %48 = load i32, ptr %47, align 4
  %49 = icmp eq i32 %48, 4
  br i1 %49, label %50, label %51

50:                                               ; preds = %46
  br label %13, !llvm.loop !8

51:                                               ; preds = %46, %43
  store i32 -1, ptr %4, align 4
  br label %54

52:                                               ; preds = %34
  br label %13, !llvm.loop !8

53:                                               ; preds = %13
  store i32 0, ptr %4, align 4
  br label %54

54:                                               ; preds = %53, %51
  %55 = load i32, ptr %4, align 4
  ret i32 %55
}

; Function Attrs: nounwind uwtable
define internal i32 @readFullyAt(i32 noundef %0, ptr noundef %1, i64 noundef %2, i64 noundef %3) #0 {
  %5 = alloca i32, align 4
  %6 = alloca i32, align 4
  %7 = alloca ptr, align 8
  %8 = alloca i64, align 8
  %9 = alloca i64, align 8
  store i32 %0, ptr %6, align 4
  store ptr %1, ptr %7, align 8
  store i64 %2, ptr %8, align 8
  store i64 %3, ptr %9, align 8
  %10 = load i32, ptr %6, align 4
  %11 = load i64, ptr %9, align 8
  %12 = call i64 @lseek64(i32 noundef %10, i64 noundef %11, i32 noundef 0) #11
  %13 = icmp eq i64 %12, -1
  br i1 %13, label %14, label %15

14:                                               ; preds = %4
  store i32 -1, ptr %5, align 4
  br label %20

15:                                               ; preds = %4
  %16 = load i32, ptr %6, align 4
  %17 = load ptr, ptr %7, align 8
  %18 = load i64, ptr %8, align 8
  %19 = call i32 @readFully(i32 noundef %16, ptr noundef %17, i64 noundef %18)
  store i32 %19, ptr %5, align 4
  br label %20

20:                                               ; preds = %15, %14
  %21 = load i32, ptr %5, align 4
  ret i32 %21
}

; Function Attrs: nounwind uwtable
define internal ptr @readCENHeader(ptr noundef %0, i64 noundef %1, i32 noundef %2) #0 {
  %4 = alloca ptr, align 8
  %5 = alloca ptr, align 8
  %6 = alloca i64, align 8
  %7 = alloca i32, align 4
  %8 = alloca i32, align 4
  %9 = alloca i32, align 4
  %10 = alloca ptr, align 8
  store ptr %0, ptr %5, align 8
  store i64 %1, ptr %6, align 8
  store i32 %2, ptr %7, align 4
  %11 = load ptr, ptr %5, align 8
  %12 = getelementptr inbounds %struct.jzfile, ptr %11, i32 0, i32 9
  %13 = load i32, ptr %12, align 8
  store i32 %13, ptr %9, align 4
  %14 = load i32, ptr %7, align 4
  %15 = sext i32 %14 to i64
  %16 = load ptr, ptr %5, align 8
  %17 = getelementptr inbounds %struct.jzfile, ptr %16, i32 0, i32 2
  %18 = load i64, ptr %17, align 8
  %19 = load i64, ptr %6, align 8
  %20 = sub nsw i64 %18, %19
  %21 = icmp sgt i64 %15, %20
  br i1 %21, label %22, label %29

22:                                               ; preds = %3
  %23 = load ptr, ptr %5, align 8
  %24 = getelementptr inbounds %struct.jzfile, ptr %23, i32 0, i32 2
  %25 = load i64, ptr %24, align 8
  %26 = load i64, ptr %6, align 8
  %27 = sub nsw i64 %25, %26
  %28 = trunc i64 %27 to i32
  store i32 %28, ptr %7, align 4
  br label %29

29:                                               ; preds = %22, %3
  %30 = load i32, ptr %7, align 4
  %31 = sext i32 %30 to i64
  %32 = call noalias ptr @malloc(i64 noundef %31) #14
  store ptr %32, ptr %10, align 8
  %33 = icmp eq ptr %32, null
  br i1 %33, label %34, label %35

34:                                               ; preds = %29
  br label %105

35:                                               ; preds = %29
  %36 = load i32, ptr %9, align 4
  %37 = load ptr, ptr %10, align 8
  %38 = load i32, ptr %7, align 4
  %39 = sext i32 %38 to i64
  %40 = load i64, ptr %6, align 8
  %41 = call i32 @readFullyAt(i32 noundef %36, ptr noundef %37, i64 noundef %39, i64 noundef %40)
  %42 = icmp eq i32 %41, -1
  br i1 %42, label %43, label %44

43:                                               ; preds = %35
  br label %105

44:                                               ; preds = %35
  %45 = load ptr, ptr %10, align 8
  %46 = getelementptr inbounds i8, ptr %45, i64 28
  %47 = load i8, ptr %46, align 1
  %48 = zext i8 %47 to i32
  %49 = load ptr, ptr %10, align 8
  %50 = getelementptr inbounds i8, ptr %49, i64 29
  %51 = load i8, ptr %50, align 1
  %52 = zext i8 %51 to i32
  %53 = shl i32 %52, 8
  %54 = or i32 %48, %53
  %55 = add nsw i32 46, %54
  %56 = load ptr, ptr %10, align 8
  %57 = getelementptr inbounds i8, ptr %56, i64 30
  %58 = load i8, ptr %57, align 1
  %59 = zext i8 %58 to i32
  %60 = load ptr, ptr %10, align 8
  %61 = getelementptr inbounds i8, ptr %60, i64 31
  %62 = load i8, ptr %61, align 1
  %63 = zext i8 %62 to i32
  %64 = shl i32 %63, 8
  %65 = or i32 %59, %64
  %66 = add nsw i32 %55, %65
  %67 = load ptr, ptr %10, align 8
  %68 = getelementptr inbounds i8, ptr %67, i64 32
  %69 = load i8, ptr %68, align 1
  %70 = zext i8 %69 to i32
  %71 = load ptr, ptr %10, align 8
  %72 = getelementptr inbounds i8, ptr %71, i64 33
  %73 = load i8, ptr %72, align 1
  %74 = zext i8 %73 to i32
  %75 = shl i32 %74, 8
  %76 = or i32 %70, %75
  %77 = add nsw i32 %66, %76
  store i32 %77, ptr %8, align 4
  %78 = load i32, ptr %8, align 4
  %79 = load i32, ptr %7, align 4
  %80 = icmp sle i32 %78, %79
  br i1 %80, label %81, label %83

81:                                               ; preds = %44
  %82 = load ptr, ptr %10, align 8
  store ptr %82, ptr %4, align 8
  br label %107

83:                                               ; preds = %44
  %84 = load ptr, ptr %10, align 8
  %85 = load i32, ptr %8, align 4
  %86 = sext i32 %85 to i64
  %87 = call ptr @realloc(ptr noundef %84, i64 noundef %86) #15
  store ptr %87, ptr %10, align 8
  %88 = icmp eq ptr %87, null
  br i1 %88, label %89, label %90

89:                                               ; preds = %83
  br label %105

90:                                               ; preds = %83
  %91 = load i32, ptr %9, align 4
  %92 = load ptr, ptr %10, align 8
  %93 = load i32, ptr %7, align 4
  %94 = sext i32 %93 to i64
  %95 = getelementptr inbounds i8, ptr %92, i64 %94
  %96 = load i32, ptr %8, align 4
  %97 = load i32, ptr %7, align 4
  %98 = sub nsw i32 %96, %97
  %99 = sext i32 %98 to i64
  %100 = call i32 @readFully(i32 noundef %91, ptr noundef %95, i64 noundef %99)
  %101 = icmp eq i32 %100, -1
  br i1 %101, label %102, label %103

102:                                              ; preds = %90
  br label %105

103:                                              ; preds = %90
  %104 = load ptr, ptr %10, align 8
  store ptr %104, ptr %4, align 8
  br label %107

105:                                              ; preds = %102, %89, %43, %34
  %106 = load ptr, ptr %10, align 8
  call void @free(ptr noundef %106) #11
  store ptr null, ptr %4, align 8
  br label %107

107:                                              ; preds = %105, %103, %81
  %108 = load ptr, ptr %4, align 8
  ret ptr %108
}