; Function Attrs: nounwind uwtable
define internal fastcc noalias noundef ptr @readCENHeader(i64 %.16.val, i32 %.72.val, i64 noundef %0, i32 noundef %1) unnamed_addr #0 {
  %3 = zext nneg i32 %1 to i64
  %4 = sub nsw i64 %.16.val, %0
  %5 = icmp slt i64 %4, %3
  %6 = trunc i64 %4 to i32
  %spec.select = select i1 %5, i32 %6, i32 %1
  %7 = sext i32 %spec.select to i64
  %8 = tail call noalias ptr @malloc(i64 noundef %7) #25
  %9 = icmp eq ptr %8, null
  br i1 %9, label %readFullyAt.exit.thread, label %10

10:                                               ; preds = %2
  %11 = tail call i64 @lseek64(i32 noundef %.72.val, i64 noundef %0, i32 noundef 0) #21
  %12 = icmp eq i64 %11, -1
  br i1 %12, label %readFullyAt.exit.thread, label %.outer.i.preheader.i

.outer.i.preheader.i:                             ; preds = %10
  %13 = icmp sgt i32 %spec.select, 0
  br i1 %13, label %.outer.split.i.preheader.i, label %readFullyAt.exit

.outer.split.i.preheader.i:                       ; preds = %.outer.i.preheader.i, %.outer.i.i
  %14 = phi i64 [ %22, %.outer.i.i ], [ %7, %.outer.i.preheader.i ]
  %.015.ph.i8.i = phi i64 [ %20, %.outer.i.i ], [ %7, %.outer.i.preheader.i ]
  %.016.ph.i7.i = phi ptr [ %19, %.outer.i.i ], [ %8, %.outer.i.preheader.i ]
  br label %.outer.split.i.i

.outer.split.i.i:                                 ; preds = %25, %.outer.split.i.preheader.i
  %15 = tail call i64 @read(i32 noundef %.72.val, ptr noundef %.016.ph.i7.i, i64 noundef %14) #21
  %16 = trunc i64 %15 to i32
  %17 = icmp sgt i32 %16, 0
  br i1 %17, label %.outer.i.i, label %23

.outer.i.i:                                       ; preds = %.outer.split.i.i
  %18 = and i64 %15, 2147483647
  %19 = getelementptr inbounds i8, ptr %.016.ph.i7.i, i64 %18
  %20 = sub nsw i64 %.015.ph.i8.i, %18
  %21 = icmp sgt i64 %20, 0
  %22 = tail call i64 @llvm.umin.i64(i64 %20, i64 2147483647)
  br i1 %21, label %.outer.split.i.preheader.i, label %readFullyAt.exit.loopexit, !llvm.loop !8

23:                                               ; preds = %.outer.split.i.i
  %24 = icmp eq i32 %16, -1
  br i1 %24, label %25, label %readFullyAt.exit.thread

25:                                               ; preds = %23
  %26 = tail call ptr @__errno_location() #22
  %27 = load i32, ptr %26, align 4
  %28 = icmp eq i32 %27, 4
  br i1 %28, label %.outer.split.i.i, label %readFullyAt.exit.thread, !llvm.loop !8

readFullyAt.exit.loopexit:                        ; preds = %.outer.i.i
  %.phi.trans.insert = getelementptr inbounds i8, ptr %8, i64 28
  %.pre = load i16, ptr %.phi.trans.insert, align 1
  %.phi.trans.insert13 = getelementptr inbounds i8, ptr %8, i64 30
  %.pre14 = load i16, ptr %.phi.trans.insert13, align 1
  %.phi.trans.insert15 = getelementptr inbounds i8, ptr %8, i64 32
  %.pre16 = load i16, ptr %.phi.trans.insert15, align 1
  %29 = zext i16 %.pre to i32
  %30 = add nuw nsw i32 %29, 46
  %31 = zext i16 %.pre14 to i32
  %32 = add nuw nsw i32 %30, %31
  %33 = zext i16 %.pre16 to i32
  %34 = add nuw nsw i32 %32, %33
  br label %readFullyAt.exit

readFullyAt.exit:                                 ; preds = %readFullyAt.exit.loopexit, %.outer.i.preheader.i
  %35 = phi i32 [ %34, %readFullyAt.exit.loopexit ], [ 46, %.outer.i.preheader.i ]
  %.not = icmp sgt i32 %35, %spec.select
  br i1 %.not, label %36, label %readFully.exit

36:                                               ; preds = %readFullyAt.exit
  %37 = zext nneg i32 %35 to i64
  %38 = tail call ptr @realloc(ptr noundef nonnull %8, i64 noundef %37) #26
  %39 = icmp eq ptr %38, null
  br i1 %39, label %readFullyAt.exit.thread, label %40

40:                                               ; preds = %36
  %41 = sub nsw i32 %35, %spec.select
  %42 = icmp sgt i32 %41, 0
  br i1 %42, label %.outer.split.i.preheader.preheader, label %readFully.exit

.outer.split.i.preheader.preheader:               ; preds = %40
  %43 = zext nneg i32 %41 to i64
  %44 = getelementptr inbounds i8, ptr %38, i64 %7
  br label %.outer.split.i.preheader

.outer.split.i.preheader:                         ; preds = %.outer.split.i.preheader.preheader, %.outer.i
  %45 = phi i64 [ %53, %.outer.i ], [ %43, %.outer.split.i.preheader.preheader ]
  %.015.ph.i8 = phi i64 [ %51, %.outer.i ], [ %43, %.outer.split.i.preheader.preheader ]
  %.016.ph.i7 = phi ptr [ %50, %.outer.i ], [ %44, %.outer.split.i.preheader.preheader ]
  br label %.outer.split.i

.outer.split.i:                                   ; preds = %.outer.split.i.preheader, %56
  %46 = tail call i64 @read(i32 noundef %.72.val, ptr noundef %.016.ph.i7, i64 noundef %45) #21
  %47 = trunc i64 %46 to i32
  %48 = icmp sgt i32 %47, 0
  br i1 %48, label %.outer.i, label %54

.outer.i:                                         ; preds = %.outer.split.i
  %49 = and i64 %46, 2147483647
  %50 = getelementptr inbounds i8, ptr %.016.ph.i7, i64 %49
  %51 = sub nsw i64 %.015.ph.i8, %49
  %52 = icmp sgt i64 %51, 0
  %53 = tail call i64 @llvm.umin.i64(i64 %51, i64 2147483647)
  br i1 %52, label %.outer.split.i.preheader, label %readFully.exit, !llvm.loop !8

54:                                               ; preds = %.outer.split.i
  %55 = icmp eq i32 %47, -1
  br i1 %55, label %56, label %readFullyAt.exit.thread

56:                                               ; preds = %54
  %57 = tail call ptr @__errno_location() #22
  %58 = load i32, ptr %57, align 4
  %59 = icmp eq i32 %58, 4
  br i1 %59, label %.outer.split.i, label %readFullyAt.exit.thread, !llvm.loop !8

readFullyAt.exit.thread:                          ; preds = %25, %23, %56, %54, %10, %36, %2
  %.0 = phi ptr [ null, %2 ], [ null, %36 ], [ %8, %10 ], [ %38, %54 ], [ %38, %56 ], [ %8, %23 ], [ %8, %25 ]
  tail call void @free(ptr noundef %.0) #21
  br label %readFully.exit

readFully.exit:                                   ; preds = %.outer.i, %40, %readFullyAt.exit, %readFullyAt.exit.thread
  %.029 = phi ptr [ null, %readFullyAt.exit.thread ], [ %8, %readFullyAt.exit ], [ %38, %40 ], [ %38, %.outer.i ]
  ret ptr %.029
}